target datalayout = "e-m:e-p270:32:32-p271:32:32-p272:64:64-i64:64-i128:128-f80:128-n8:16:32:64-S128"
target triple = "x86_64-pc-linux-gnu"

%struct.H5C_t = type { i8, ptr, ptr, i32, ptr, i64, i64, ptr, i8, ptr, i8, i8, i32, i64, [6 x i32], [6 x i64], i64, [6 x i64], i64, [6 x i64], [65536 x ptr], i32, i64, ptr, ptr, i64, ptr, ptr, i8, i8, i32, i64, [6 x i32], [6 x i64], ptr, i32, ptr, i8, i32, i32, i64, ptr, ptr, i32, i64, ptr, ptr, i32, i64, ptr, ptr, i8, i8, i64, i8, i8, i8, i8, i8, i8, %struct.H5C_auto_size_ctl_t, i32, [10 x i8], [11 x i32], i32, i32, i32, [10 x %struct.H5C_cache_entry_t], i64, i64, %struct.H5C_cache_image_ctl_t, i8, i8, i8, i8, i64, i64, i64, i64, i64, i64, i64, i32, ptr, ptr, i8, i8, [32 x i8] }
%struct.H5C_auto_size_ctl_t = type { i32, ptr, i8, i64, double, i64, i64, i64, i32, double, double, i8, i64, i32, double, double, i32, double, double, i8, i64, i32, i8, double }
%struct.H5C_cache_entry_t = type { ptr, i64, i64, ptr, i8, ptr, i8, i8, i8, i8, i32, i8, i8, i8, i8, i8, i32, ptr, i32, i32, i32, i32, i32, i8, i8, ptr, ptr, ptr, ptr, ptr, ptr, i8, i32, i8, i64, ptr, i64, i64, i32, i8, i32, i32, i8, ptr, ptr, ptr }
%struct.H5C_cache_image_ctl_t = type { i32, i8, i8, i32, i32 }

@H5C_init_g = external global i8, align 1
@H5_libterm_g = external global i8, align 1
@.str.1 = private unnamed_addr constant [102 x i8] c"generated/home/dtcxzyw/WorkSpace/Projects/compilers/llvm-opt-benchmark/bench/hdf5/hdf5/src/H5Cimage.c\00", align 1
@H5E_CACHE_g = external global i64, align 8
@H5E_BADVALUE_g = external global i64, align 8
@.str.5 = private unnamed_addr constant [23 x i8] c"Bad cache_ptr on entry\00", align 1
@__func__.H5C_set_cache_image_config = private unnamed_addr constant [27 x i8] c"H5C_set_cache_image_config\00", align 1
@H5E_ARGS_g = external global i64, align 8
@H5E_BADRANGE_g = external global i64, align 8
@.str.20 = private unnamed_addr constant [34 x i8] c"invalid cache image configuration\00", align 1
@__const.H5C_set_cache_image_config.default_image_ctl = private unnamed_addr constant { i32, i8, i8, [2 x i8], i32, i32 } { i32 1, i8 0, i8 0, [2 x i8] zeroinitializer, i32 -1, i32 15 }, align 4

; Function Attrs: nounwind uwtable
define i32 @H5C_set_cache_image_config(ptr noundef %0, ptr noundef %1, ptr noundef %2) #0 {
  %4 = alloca ptr, align 8
  %5 = alloca ptr, align 8
  %6 = alloca ptr, align 8
  %7 = alloca i32, align 4
  %8 = alloca i8, align 1
  %9 = alloca %struct.H5C_cache_image_ctl_t, align 4
  store ptr %0, ptr %4, align 8, !tbaa !26
  store ptr %1, ptr %5, align 8, !tbaa !3
  store ptr %2, ptr %6, align 8, !tbaa !73
  call void @llvm.lifetime.start.p0(i64 4, ptr %7) #8
  store i32 0, ptr %7, align 4, !tbaa !54
  call void @llvm.lifetime.start.p0(i64 1, ptr %8) #8
  store i8 0, ptr %8, align 1, !tbaa !8
  %10 = load i8, ptr @H5C_init_g, align 1, !tbaa !8, !range !10, !noundef !11
  %11 = trunc i8 %10 to i1
  br i1 %11, label %16, label %12

12:                                               ; preds = %3
  %13 = load i8, ptr @H5_libterm_g, align 1, !tbaa !8, !range !10, !noundef !11
  %14 = trunc i8 %13 to i1
  %15 = xor i1 %14, true
  br label %16

16:                                               ; preds = %12, %3
  %17 = phi i1 [ false, %3 ], [ %15, %12 ]
  %18 = xor i1 %17, true
  %19 = xor i1 %18, true
  %20 = zext i1 %19 to i32
  %21 = sext i32 %20 to i64
  %22 = call i64 @llvm.expect.i64(i64 %21, i64 0)
  %23 = icmp ne i64 %22, 0
  br i1 %23, label %24, label %25

24:                                               ; preds = %16
  store i8 1, ptr @H5C_init_g, align 1, !tbaa !8
  br label %25

25:                                               ; preds = %24, %16
  %26 = load i8, ptr @H5C_init_g, align 1, !tbaa !8, !range !10, !noundef !11
  %27 = trunc i8 %26 to i1
  br i1 %27, label %32, label %28

28:                                               ; preds = %25
  %29 = load i8, ptr @H5_libterm_g, align 1, !tbaa !8, !range !10, !noundef !11
  %30 = trunc i8 %29 to i1
  %31 = xor i1 %30, true
  br label %32

32:                                               ; preds = %28, %25
  %33 = phi i1 [ true, %25 ], [ %31, %28 ]
  %34 = xor i1 %33, true
  %35 = xor i1 %34, true
  %36 = zext i1 %35 to i32
  %37 = sext i32 %36 to i64
  %38 = call i64 @llvm.expect.i64(i64 %37, i64 1)
  %39 = icmp ne i64 %38, 0
  br i1 %39, label %40, label %99

40:                                               ; preds = %32
  %41 = load ptr, ptr %5, align 8, !tbaa !3
  %42 = icmp eq ptr %41, null
  br i1 %42, label %43, label %62

43:                                               ; preds = %40
  br label %44

44:                                               ; preds = %43
  br label %45

45:                                               ; preds = %44
  br label %46

46:                                               ; preds = %45
  %47 = load i64, ptr @H5E_CACHE_g, align 8, !tbaa !55
  %48 = load i64, ptr @H5E_BADVALUE_g, align 8, !tbaa !55
  %49 = call i32 (ptr, ptr, i32, i64, i64, ptr, ...) @H5E_printf_stack(ptr noundef @.str.1, ptr noundef @__func__.H5C_set_cache_image_config, i32 noundef 1100, i64 noundef %47, i64 noundef %48, ptr noundef @.str.5)
  br label %50

50:                                               ; preds = %46
  br label %51

51:                                               ; preds = %50
  store i8 1, ptr %8, align 1, !tbaa !8
  %52 = load i8, ptr %8, align 1, !tbaa !8, !range !10, !noundef !11
  %53 = trunc i8 %52 to i1
  %54 = zext i1 %53 to i8
  store i8 %54, ptr %8, align 1, !tbaa !8
  br label %55

55:                                               ; preds = %51
  br label %56

56:                                               ; preds = %55
  br label %57

57:                                               ; preds = %56
  store i32 -1, ptr %7, align 4, !tbaa !54
  br label %98

58:                                               ; No predecessors!
  br label %59

59:                                               ; preds = %58
  br label %60

60:                                               ; preds = %59
  br label %61

61:                                               ; preds = %60
  br label %62

62:                                               ; preds = %61, %40
  %63 = load ptr, ptr %6, align 8, !tbaa !73
  %64 = call i32 @H5C_validate_cache_image_config(ptr noundef %63)
  %65 = icmp slt i32 %64, 0
  br i1 %65, label %66, label %85

66:                                               ; preds = %62
  br label %67

67:                                               ; preds = %66
  br label %68

68:                                               ; preds = %67
  br label %69

69:                                               ; preds = %68
  %70 = load i64, ptr @H5E_ARGS_g, align 8, !tbaa !55
  %71 = load i64, ptr @H5E_BADRANGE_g, align 8, !tbaa !55
  %72 = call i32 (ptr, ptr, i32, i64, i64, ptr, ...) @H5E_printf_stack(ptr noundef @.str.1, ptr noundef @__func__.H5C_set_cache_image_config, i32 noundef 1104, i64 noundef %70, i64 noundef %71, ptr noundef @.str.20)
  br label %73

73:                                               ; preds = %69
  br label %74

74:                                               ; preds = %73
  store i8 1, ptr %8, align 1, !tbaa !8
  %75 = load i8, ptr %8, align 1, !tbaa !8, !range !10, !noundef !11
  %76 = trunc i8 %75 to i1
  %77 = zext i1 %76 to i8
  store i8 %77, ptr %8, align 1, !tbaa !8
  br label %78

78:                                               ; preds = %74
  br label %79

79:                                               ; preds = %78
  br label %80

80:                                               ; preds = %79
  store i32 -1, ptr %7, align 4, !tbaa !54
  br label %98

81:                                               ; No predecessors!
  br label %82

82:                                               ; preds = %81
  br label %83

83:                                               ; preds = %82
  br label %84

84:                                               ; preds = %83
  br label %85

85:                                               ; preds = %84, %62
  %86 = load ptr, ptr %4, align 8, !tbaa !26
  %87 = call i32 @H5F_get_intent(ptr noundef %86)
  %88 = and i32 %87, 1
  %89 = icmp ne i32 %88, 0
  br i1 %89, label %90, label %94

90:                                               ; preds = %85
  %91 = load ptr, ptr %5, align 8, !tbaa !3
  %92 = getelementptr inbounds nuw %struct.H5C_t, ptr %91, i32 0, i32 70
  %93 = load ptr, ptr %6, align 8, !tbaa !73
  call void @llvm.memcpy.p0.p0.i64(ptr align 8 %92, ptr align 4 %93, i64 16, i1 false), !tbaa.struct !75
  br label %97

94:                                               ; preds = %85
  call void @llvm.lifetime.start.p0(i64 16, ptr %9) #8
  call void @llvm.memcpy.p0.p0.i64(ptr align 4 %9, ptr align 4 @__const.H5C_set_cache_image_config.default_image_ctl, i64 16, i1 false)
  %95 = load ptr, ptr %5, align 8, !tbaa !3
  %96 = getelementptr inbounds nuw %struct.H5C_t, ptr %95, i32 0, i32 70
  call void @llvm.memcpy.p0.p0.i64(ptr align 8 %96, ptr align 4 %9, i64 16, i1 false), !tbaa.struct !75
  call void @llvm.lifetime.end.p0(i64 16, ptr %9) #8
  br label %97

97:                                               ; preds = %94, %90
  br label %98

98:                                               ; preds = %97, %80, %57
  br label %99

99:                                               ; preds = %98, %32
  %100 = load i32, ptr %7, align 4, !tbaa !54
  call void @llvm.lifetime.end.p0(i64 1, ptr %8) #8
  call void @llvm.lifetime.end.p0(i64 4, ptr %7) #8
  ret i32 %100
}