; Function Attrs: nounwind uwtable
define range(i32 -1, 1) i32 @H5C_set_cache_image_config(ptr noundef %0, ptr noundef writeonly captures(address_is_null) %1, ptr noundef captures(address_is_null) %2) local_unnamed_addr #3 {
  %4 = load i8, ptr @H5C_init_g, align 1, !tbaa !3, !range !7, !noundef !8
  %5 = trunc nuw i8 %4 to i1
  %6 = load i8, ptr @H5_libterm_g, align 1, !range !7
  %7 = trunc nuw i8 %6 to i1
  %8 = select i1 %5, i1 true, i1 %7
  br i1 %8, label %9, label %.thread, !prof !9

.thread:                                          ; preds = %3
  store i8 1, ptr @H5C_init_g, align 1, !tbaa !3
  br label %12

9:                                                ; preds = %3
  %10 = xor i1 %7, true
  %11 = select i1 %5, i1 true, i1 %10
  br i1 %11, label %12, label %31, !prof !186

12:                                               ; preds = %.thread, %9
  %13 = icmp eq ptr %1, null
  br i1 %13, label %14, label %18

14:                                               ; preds = %12
  %15 = load i64, ptr @H5E_CACHE_g, align 8, !tbaa !53
  %16 = load i64, ptr @H5E_BADVALUE_g, align 8, !tbaa !53
  %17 = tail call i32 (ptr, ptr, i32, i64, i64, ptr, ...) @H5E_printf_stack(ptr noundef nonnull @.str.1, ptr noundef nonnull @__func__.H5C_set_cache_image_config, i32 noundef 1100, i64 noundef %15, i64 noundef %16, ptr noundef nonnull @.str.5) #15
  br label %31

18:                                               ; preds = %12
  %19 = tail call i32 @H5C_validate_cache_image_config(ptr noundef %2)
  %20 = icmp slt i32 %19, 0
  br i1 %20, label %21, label %25

21:                                               ; preds = %18
  %22 = load i64, ptr @H5E_ARGS_g, align 8, !tbaa !53
  %23 = load i64, ptr @H5E_BADRANGE_g, align 8, !tbaa !53
  %24 = tail call i32 (ptr, ptr, i32, i64, i64, ptr, ...) @H5E_printf_stack(ptr noundef nonnull @.str.1, ptr noundef nonnull @__func__.H5C_set_cache_image_config, i32 noundef 1104, i64 noundef %22, i64 noundef %23, ptr noundef nonnull @.str.20) #15
  br label %31

25:                                               ; preds = %18
  %26 = tail call i32 @H5F_get_intent(ptr noundef %0) #15
  %27 = and i32 %26, 1
  %.not = icmp eq i32 %27, 0
  %28 = getelementptr inbounds nuw i8, ptr %1, i64 527616
  br i1 %.not, label %30, label %29

29:                                               ; preds = %25
  tail call void @llvm.memcpy.p0.p0.i64(ptr noundef nonnull align 8 dereferenceable(16) %28, ptr noundef nonnull align 4 dereferenceable(16) %2, i64 16, i1 false), !tbaa.struct !82
  br label %31

30:                                               ; preds = %25
  tail call void @llvm.memcpy.p0.p0.i64(ptr noundef nonnull align 8 dereferenceable(16) %28, ptr noundef nonnull align 4 dereferenceable(16) @__const.H5C_set_cache_image_config.default_image_ctl, i64 16, i1 false), !tbaa.struct !82
  br label %31

31:                                               ; preds = %14, %21, %30, %29, %9
  %.0 = phi i32 [ -1, %14 ], [ -1, %21 ], [ 0, %29 ], [ 0, %30 ], [ 0, %9 ]
  ret i32 %.0
}